(dp1
S'failed'
p2
(lp3
S'3'
asS'source_names'
p4
(lp5
S'uscities/functionaltests.py'
p6
asS'ids'
p7
(dp8
I1
(S'/home/dinesh/devs/projects/multi-tenant/uscities/uscities/functionaltests.py'
S'uscities.functionaltests'
p9
S'TestUsCitiesFunctional.test_get_co'
tp10
sI2
(S'/home/dinesh/devs/projects/multi-tenant/uscities/uscities/functionaltests.py'
g9
S'TestUsCitiesFunctional.test_get_co_80202'
tp11
sI3
(S'/home/dinesh/devs/projects/multi-tenant/uscities/uscities/functionaltests.py'
g9
S'TestUsCitiesFunctional.test_get_co_zip_80227'
tp12
sI4
(S'/home/dinesh/devs/projects/multi-tenant/uscities/uscities/functionaltests.py'
g9
S'TestUsCitiesFunctional.test_get_tn'
tp13
ss.